; Function Attrs: mustprogress uwtable
define void @_ZN6Handle15mousePressEventEP24QGraphicsSceneMouseEvent(ptr noundef nonnull align 8 dereferenceable(64) %0, ptr noundef nonnull %1) unnamed_addr #0 align 2 personality ptr @__gxx_personality_v0 {
  %3 = alloca %class.QCursor, align 8
  %4 = tail call noundef i32 @_ZNK24QGraphicsSceneMouseEvent6buttonEv(ptr noundef nonnull align 8 dereferenceable(32) %1)
  %.not = icmp eq i32 %4, 1
  br i1 %.not, label %9, label %5

5:                                                ; preds = %2
  %6 = getelementptr inbounds i8, ptr %1, i64 18
  %7 = load i16, ptr %6, align 2
  %8 = and i16 %7, -5
  store i16 %8, ptr %6, align 2
  br label %12

9:                                                ; preds = %2
  %10 = getelementptr inbounds i8, ptr %0, i64 16
  call void @_ZN7QCursorC1EN2Qt11CursorShapeE(ptr noundef nonnull align 8 dereferenceable(8) %3, i32 noundef 18)
  invoke void @_ZN13QGraphicsItem9setCursorERK7QCursor(ptr noundef nonnull align 8 dereferenceable(16) %10, ptr noundef nonnull align 8 dereferenceable(8) %3)
          to label %11 unwind label %13

11:                                               ; preds = %9
  call void @_ZN7QCursorD1Ev(ptr noundef nonnull align 8 dereferenceable(8) %3) #13
  br label %12

12:                                               ; preds = %11, %5
  ret void

13:                                               ; preds = %9
  %14 = landingpad { ptr, i32 }
          cleanup
  call void @_ZN7QCursorD1Ev(ptr noundef nonnull align 8 dereferenceable(8) %3) #13
  resume { ptr, i32 } %14
}